target datalayout = "e-m:e-p270:32:32-p271:32:32-p272:64:64-i64:64-i128:128-f80:128-n8:16:32:64-S128"
target triple = "x86_64-pc-linux-gnu"

%struct.ZSTD_customMem = type { ptr, ptr, ptr }
%struct.ZSTD_frameParameters = type { i32, i32, i32 }
%struct.ZSTD_compressionParameters = type { i32, i32, i32, i32, i32, i32, i32 }
%struct.ZSTD_CCtx_params_s = type { i32, %struct.ZSTD_compressionParameters, %struct.ZSTD_frameParameters, i32, i32, i64, i32, i32, i32, i32, i64, i32, i32, %struct.ldmParams_t, i32, i32, i32, i32, i32, i32, i32, i32, %struct.ZSTD_customMem, i32, i32, i32, i64, i32 }
%struct.ldmParams_t = type { i32, i32, i32, i32, i32, i32 }

; Function Attrs: nounwind uwtable
define dso_local i64 @ZSTD_CCtxParams_getParameter(ptr noundef %0, i32 noundef %1, ptr noundef %2) #0 {
  %4 = alloca i64, align 8
  %5 = alloca ptr, align 8
  %6 = alloca i32, align 4
  %7 = alloca ptr, align 8
  store ptr %0, ptr %5, align 8
  store i32 %1, ptr %6, align 4
  store ptr %2, ptr %7, align 8
  %8 = load i32, ptr %6, align 4
  switch i32 %8, label %213 [
    i32 10, label %9
    i32 100, label %14
    i32 101, label %19
    i32 102, label %25
    i32 103, label %31
    i32 104, label %37
    i32 105, label %43
    i32 106, label %49
    i32 107, label %55
    i32 200, label %61
    i32 201, label %67
    i32 202, label %73
    i32 1000, label %82
    i32 1001, label %87
    i32 1002, label %92
    i32 400, label %97
    i32 401, label %102
    i32 402, label %105
    i32 500, label %108
    i32 1005, label %111
    i32 160, label %116
    i32 161, label %122
    i32 162, label %128
    i32 163, label %134
    i32 164, label %140
    i32 1003, label %146
    i32 1004, label %152
    i32 1006, label %157
    i32 1007, label %162
    i32 1008, label %167
    i32 1009, label %172
    i32 1010, label %177
    i32 1011, label %182
    i32 1012, label %187
    i32 1013, label %192
    i32 1014, label %197
    i32 1015, label %202
    i32 1016, label %208
  ]

9:                                                ; preds = %3
  %10 = load ptr, ptr %5, align 8
  %11 = getelementptr inbounds %struct.ZSTD_CCtx_params_s, ptr %10, i32 0, i32 0
  %12 = load i32, ptr %11, align 8
  %13 = load ptr, ptr %7, align 8
  store i32 %12, ptr %13, align 4
  br label %216

14:                                               ; preds = %3
  %15 = load ptr, ptr %5, align 8
  %16 = getelementptr inbounds %struct.ZSTD_CCtx_params_s, ptr %15, i32 0, i32 3
  %17 = load i32, ptr %16, align 4
  %18 = load ptr, ptr %7, align 8
  store i32 %17, ptr %18, align 4
  br label %216

19:                                               ; preds = %3
  %20 = load ptr, ptr %5, align 8
  %21 = getelementptr inbounds %struct.ZSTD_CCtx_params_s, ptr %20, i32 0, i32 1
  %22 = getelementptr inbounds %struct.ZSTD_compressionParameters, ptr %21, i32 0, i32 0
  %23 = load i32, ptr %22, align 4
  %24 = load ptr, ptr %7, align 8
  store i32 %23, ptr %24, align 4
  br label %216

25:                                               ; preds = %3
  %26 = load ptr, ptr %5, align 8
  %27 = getelementptr inbounds %struct.ZSTD_CCtx_params_s, ptr %26, i32 0, i32 1
  %28 = getelementptr inbounds %struct.ZSTD_compressionParameters, ptr %27, i32 0, i32 2
  %29 = load i32, ptr %28, align 4
  %30 = load ptr, ptr %7, align 8
  store i32 %29, ptr %30, align 4
  br label %216

31:                                               ; preds = %3
  %32 = load ptr, ptr %5, align 8
  %33 = getelementptr inbounds %struct.ZSTD_CCtx_params_s, ptr %32, i32 0, i32 1
  %34 = getelementptr inbounds %struct.ZSTD_compressionParameters, ptr %33, i32 0, i32 1
  %35 = load i32, ptr %34, align 4
  %36 = load ptr, ptr %7, align 8
  store i32 %35, ptr %36, align 4
  br label %216

37:                                               ; preds = %3
  %38 = load ptr, ptr %5, align 8
  %39 = getelementptr inbounds %struct.ZSTD_CCtx_params_s, ptr %38, i32 0, i32 1
  %40 = getelementptr inbounds %struct.ZSTD_compressionParameters, ptr %39, i32 0, i32 3
  %41 = load i32, ptr %40, align 4
  %42 = load ptr, ptr %7, align 8
  store i32 %41, ptr %42, align 4
  br label %216

43:                                               ; preds = %3
  %44 = load ptr, ptr %5, align 8
  %45 = getelementptr inbounds %struct.ZSTD_CCtx_params_s, ptr %44, i32 0, i32 1
  %46 = getelementptr inbounds %struct.ZSTD_compressionParameters, ptr %45, i32 0, i32 4
  %47 = load i32, ptr %46, align 4
  %48 = load ptr, ptr %7, align 8
  store i32 %47, ptr %48, align 4
  br label %216

49:                                               ; preds = %3
  %50 = load ptr, ptr %5, align 8
  %51 = getelementptr inbounds %struct.ZSTD_CCtx_params_s, ptr %50, i32 0, i32 1
  %52 = getelementptr inbounds %struct.ZSTD_compressionParameters, ptr %51, i32 0, i32 5
  %53 = load i32, ptr %52, align 4
  %54 = load ptr, ptr %7, align 8
  store i32 %53, ptr %54, align 4
  br label %216

55:                                               ; preds = %3
  %56 = load ptr, ptr %5, align 8
  %57 = getelementptr inbounds %struct.ZSTD_CCtx_params_s, ptr %56, i32 0, i32 1
  %58 = getelementptr inbounds %struct.ZSTD_compressionParameters, ptr %57, i32 0, i32 6
  %59 = load i32, ptr %58, align 4
  %60 = load ptr, ptr %7, align 8
  store i32 %59, ptr %60, align 4
  br label %216

61:                                               ; preds = %3
  %62 = load ptr, ptr %5, align 8
  %63 = getelementptr inbounds %struct.ZSTD_CCtx_params_s, ptr %62, i32 0, i32 2
  %64 = getelementptr inbounds %struct.ZSTD_frameParameters, ptr %63, i32 0, i32 0
  %65 = load i32, ptr %64, align 8
  %66 = load ptr, ptr %7, align 8
  store i32 %65, ptr %66, align 4
  br label %216

67:                                               ; preds = %3
  %68 = load ptr, ptr %5, align 8
  %69 = getelementptr inbounds %struct.ZSTD_CCtx_params_s, ptr %68, i32 0, i32 2
  %70 = getelementptr inbounds %struct.ZSTD_frameParameters, ptr %69, i32 0, i32 1
  %71 = load i32, ptr %70, align 4
  %72 = load ptr, ptr %7, align 8
  store i32 %71, ptr %72, align 4
  br label %216

73:                                               ; preds = %3
  %74 = load ptr, ptr %5, align 8
  %75 = getelementptr inbounds %struct.ZSTD_CCtx_params_s, ptr %74, i32 0, i32 2
  %76 = getelementptr inbounds %struct.ZSTD_frameParameters, ptr %75, i32 0, i32 2
  %77 = load i32, ptr %76, align 8
  %78 = icmp ne i32 %77, 0
  %79 = xor i1 %78, true
  %80 = zext i1 %79 to i32
  %81 = load ptr, ptr %7, align 8
  store i32 %80, ptr %81, align 4
  br label %216

82:                                               ; preds = %3
  %83 = load ptr, ptr %5, align 8
  %84 = getelementptr inbounds %struct.ZSTD_CCtx_params_s, ptr %83, i32 0, i32 4
  %85 = load i32, ptr %84, align 8
  %86 = load ptr, ptr %7, align 8
  store i32 %85, ptr %86, align 4
  br label %216

87:                                               ; preds = %3
  %88 = load ptr, ptr %5, align 8
  %89 = getelementptr inbounds %struct.ZSTD_CCtx_params_s, ptr %88, i32 0, i32 7
  %90 = load i32, ptr %89, align 4
  %91 = load ptr, ptr %7, align 8
  store i32 %90, ptr %91, align 4
  br label %216

92:                                               ; preds = %3
  %93 = load ptr, ptr %5, align 8
  %94 = getelementptr inbounds %struct.ZSTD_CCtx_params_s, ptr %93, i32 0, i32 8
  %95 = load i32, ptr %94, align 8
  %96 = load ptr, ptr %7, align 8
  store i32 %95, ptr %96, align 4
  br label %216

97:                                               ; preds = %3
  %98 = load ptr, ptr %5, align 8
  %99 = getelementptr inbounds %struct.ZSTD_CCtx_params_s, ptr %98, i32 0, i32 9
  %100 = load i32, ptr %99, align 4
  %101 = load ptr, ptr %7, align 8
  store i32 %100, ptr %101, align 4
  br label %216

102:                                              ; preds = %3
  br label %103

103:                                              ; preds = %102
  store i64 -40, ptr %4, align 8
  br label %217

104:                                              ; No predecessors!
  br label %105

105:                                              ; preds = %104, %3
  br label %106

106:                                              ; preds = %105
  store i64 -40, ptr %4, align 8
  br label %217

107:                                              ; No predecessors!
  br label %108

108:                                              ; preds = %107, %3
  br label %109

109:                                              ; preds = %108
  store i64 -40, ptr %4, align 8
  br label %217

110:                                              ; No predecessors!
  br label %111

111:                                              ; preds = %110, %3
  %112 = load ptr, ptr %5, align 8
  %113 = getelementptr inbounds %struct.ZSTD_CCtx_params_s, ptr %112, i32 0, i32 14
  %114 = load i32, ptr %113, align 8
  %115 = load ptr, ptr %7, align 8
  store i32 %114, ptr %115, align 4
  br label %216

116:                                              ; preds = %3
  %117 = load ptr, ptr %5, align 8
  %118 = getelementptr inbounds %struct.ZSTD_CCtx_params_s, ptr %117, i32 0, i32 13
  %119 = getelementptr inbounds %struct.ldmParams_t, ptr %118, i32 0, i32 0
  %120 = load i32, ptr %119, align 8
  %121 = load ptr, ptr %7, align 8
  store i32 %120, ptr %121, align 4
  br label %216

122:                                              ; preds = %3
  %123 = load ptr, ptr %5, align 8
  %124 = getelementptr inbounds %struct.ZSTD_CCtx_params_s, ptr %123, i32 0, i32 13
  %125 = getelementptr inbounds %struct.ldmParams_t, ptr %124, i32 0, i32 1
  %126 = load i32, ptr %125, align 4
  %127 = load ptr, ptr %7, align 8
  store i32 %126, ptr %127, align 4
  br label %216

128:                                              ; preds = %3
  %129 = load ptr, ptr %5, align 8
  %130 = getelementptr inbounds %struct.ZSTD_CCtx_params_s, ptr %129, i32 0, i32 13
  %131 = getelementptr inbounds %struct.ldmParams_t, ptr %130, i32 0, i32 3
  %132 = load i32, ptr %131, align 4
  %133 = load ptr, ptr %7, align 8
  store i32 %132, ptr %133, align 4
  br label %216

134:                                              ; preds = %3
  %135 = load ptr, ptr %5, align 8
  %136 = getelementptr inbounds %struct.ZSTD_CCtx_params_s, ptr %135, i32 0, i32 13
  %137 = getelementptr inbounds %struct.ldmParams_t, ptr %136, i32 0, i32 2
  %138 = load i32, ptr %137, align 8
  %139 = load ptr, ptr %7, align 8
  store i32 %138, ptr %139, align 4
  br label %216

140:                                              ; preds = %3
  %141 = load ptr, ptr %5, align 8
  %142 = getelementptr inbounds %struct.ZSTD_CCtx_params_s, ptr %141, i32 0, i32 13
  %143 = getelementptr inbounds %struct.ldmParams_t, ptr %142, i32 0, i32 4
  %144 = load i32, ptr %143, align 8
  %145 = load ptr, ptr %7, align 8
  store i32 %144, ptr %145, align 4
  br label %216

146:                                              ; preds = %3
  %147 = load ptr, ptr %5, align 8
  %148 = getelementptr inbounds %struct.ZSTD_CCtx_params_s, ptr %147, i32 0, i32 5
  %149 = load i64, ptr %148, align 8
  %150 = trunc i64 %149 to i32
  %151 = load ptr, ptr %7, align 8
  store i32 %150, ptr %151, align 4
  br label %216

152:                                              ; preds = %3
  %153 = load ptr, ptr %5, align 8
  %154 = getelementptr inbounds %struct.ZSTD_CCtx_params_s, ptr %153, i32 0, i32 6
  %155 = load i32, ptr %154, align 8
  %156 = load ptr, ptr %7, align 8
  store i32 %155, ptr %156, align 4
  br label %216

157:                                              ; preds = %3
  %158 = load ptr, ptr %5, align 8
  %159 = getelementptr inbounds %struct.ZSTD_CCtx_params_s, ptr %158, i32 0, i32 15
  %160 = load i32, ptr %159, align 4
  %161 = load ptr, ptr %7, align 8
  store i32 %160, ptr %161, align 4
  br label %216

162:                                              ; preds = %3
  %163 = load ptr, ptr %5, align 8
  %164 = getelementptr inbounds %struct.ZSTD_CCtx_params_s, ptr %163, i32 0, i32 16
  %165 = load i32, ptr %164, align 8
  %166 = load ptr, ptr %7, align 8
  store i32 %165, ptr %166, align 4
  br label %216

167:                                              ; preds = %3
  %168 = load ptr, ptr %5, align 8
  %169 = getelementptr inbounds %struct.ZSTD_CCtx_params_s, ptr %168, i32 0, i32 17
  %170 = load i32, ptr %169, align 4
  %171 = load ptr, ptr %7, align 8
  store i32 %170, ptr %171, align 4
  br label %216

172:                                              ; preds = %3
  %173 = load ptr, ptr %5, align 8
  %174 = getelementptr inbounds %struct.ZSTD_CCtx_params_s, ptr %173, i32 0, i32 18
  %175 = load i32, ptr %174, align 8
  %176 = load ptr, ptr %7, align 8
  store i32 %175, ptr %176, align 4
  br label %216

177:                                              ; preds = %3
  %178 = load ptr, ptr %5, align 8
  %179 = getelementptr inbounds %struct.ZSTD_CCtx_params_s, ptr %178, i32 0, i32 19
  %180 = load i32, ptr %179, align 4
  %181 = load ptr, ptr %7, align 8
  store i32 %180, ptr %181, align 4
  br label %216

182:                                              ; preds = %3
  %183 = load ptr, ptr %5, align 8
  %184 = getelementptr inbounds %struct.ZSTD_CCtx_params_s, ptr %183, i32 0, i32 20
  %185 = load i32, ptr %184, align 8
  %186 = load ptr, ptr %7, align 8
  store i32 %185, ptr %186, align 4
  br label %216

187:                                              ; preds = %3
  %188 = load ptr, ptr %5, align 8
  %189 = getelementptr inbounds %struct.ZSTD_CCtx_params_s, ptr %188, i32 0, i32 21
  %190 = load i32, ptr %189, align 4
  %191 = load ptr, ptr %7, align 8
  store i32 %190, ptr %191, align 4
  br label %216

192:                                              ; preds = %3
  %193 = load ptr, ptr %5, align 8
  %194 = getelementptr inbounds %struct.ZSTD_CCtx_params_s, ptr %193, i32 0, i32 23
  %195 = load i32, ptr %194, align 8
  %196 = load ptr, ptr %7, align 8
  store i32 %195, ptr %196, align 4
  br label %216

197:                                              ; preds = %3
  %198 = load ptr, ptr %5, align 8
  %199 = getelementptr inbounds %struct.ZSTD_CCtx_params_s, ptr %198, i32 0, i32 24
  %200 = load i32, ptr %199, align 4
  %201 = load ptr, ptr %7, align 8
  store i32 %200, ptr %201, align 4
  br label %216

202:                                              ; preds = %3
  %203 = load ptr, ptr %5, align 8
  %204 = getelementptr inbounds %struct.ZSTD_CCtx_params_s, ptr %203, i32 0, i32 26
  %205 = load i64, ptr %204, align 8
  %206 = trunc i64 %205 to i32
  %207 = load ptr, ptr %7, align 8
  store i32 %206, ptr %207, align 4
  br label %216

208:                                              ; preds = %3
  %209 = load ptr, ptr %5, align 8
  %210 = getelementptr inbounds %struct.ZSTD_CCtx_params_s, ptr %209, i32 0, i32 27
  %211 = load i32, ptr %210, align 8
  %212 = load ptr, ptr %7, align 8
  store i32 %211, ptr %212, align 4
  br label %216

213:                                              ; preds = %3
  br label %214

214:                                              ; preds = %213
  store i64 -40, ptr %4, align 8
  br label %217

215:                                              ; No predecessors!
  br label %216

216:                                              ; preds = %215, %208, %202, %197, %192, %187, %182, %177, %172, %167, %162, %157, %152, %146, %140, %134, %128, %122, %116, %111, %97, %92, %87, %82, %73, %67, %61, %55, %49, %43, %37, %31, %25, %19, %14, %9
  store i64 0, ptr %4, align 8
  br label %217

217:                                              ; preds = %216, %214, %109, %106, %103
  %218 = load i64, ptr %4, align 8
  ret i64 %218
}