; Function Attrs: mustprogress nofree norecurse nosync nounwind willreturn memory(argmem: readwrite) uwtable
define dso_local range(i64 -40, 1) i64 @ZSTD_CCtxParams_getParameter(ptr noundef readonly captures(none) %0, i32 noundef %1, ptr noundef writeonly captures(none) %2) local_unnamed_addr #7 {
  switch i32 %1, label %111 [
    i32 10, label %4
    i32 100, label %6
    i32 101, label %9
    i32 102, label %12
    i32 103, label %15
    i32 104, label %18
    i32 105, label %21
    i32 106, label %24
    i32 107, label %27
    i32 200, label %30
    i32 201, label %33
    i32 202, label %36
    i32 1000, label %40
    i32 1001, label %43
    i32 1002, label %46
    i32 400, label %49
    i32 1016, label %108
    i32 1015, label %104
    i32 1014, label %101
    i32 1005, label %52
    i32 160, label %55
    i32 161, label %58
    i32 162, label %61
    i32 163, label %64
    i32 164, label %67
    i32 1003, label %70
    i32 1004, label %74
    i32 1006, label %77
    i32 1007, label %80
    i32 1008, label %83
    i32 1009, label %86
    i32 1010, label %89
    i32 1011, label %92
    i32 1012, label %95
    i32 1013, label %98
  ]

4:                                                ; preds = %3
  %5 = load i32, ptr %0, align 8
  br label %.sink.split

6:                                                ; preds = %3
  %7 = getelementptr inbounds nuw i8, ptr %0, i64 44
  %8 = load i32, ptr %7, align 4
  br label %.sink.split

9:                                                ; preds = %3
  %10 = getelementptr inbounds nuw i8, ptr %0, i64 4
  %11 = load i32, ptr %10, align 4
  br label %.sink.split

12:                                               ; preds = %3
  %13 = getelementptr inbounds nuw i8, ptr %0, i64 12
  %14 = load i32, ptr %13, align 4
  br label %.sink.split

15:                                               ; preds = %3
  %16 = getelementptr inbounds nuw i8, ptr %0, i64 8
  %17 = load i32, ptr %16, align 4
  br label %.sink.split

18:                                               ; preds = %3
  %19 = getelementptr inbounds nuw i8, ptr %0, i64 16
  %20 = load i32, ptr %19, align 4
  br label %.sink.split

21:                                               ; preds = %3
  %22 = getelementptr inbounds nuw i8, ptr %0, i64 20
  %23 = load i32, ptr %22, align 4
  br label %.sink.split

24:                                               ; preds = %3
  %25 = getelementptr inbounds nuw i8, ptr %0, i64 24
  %26 = load i32, ptr %25, align 4
  br label %.sink.split

27:                                               ; preds = %3
  %28 = getelementptr inbounds nuw i8, ptr %0, i64 28
  %29 = load i32, ptr %28, align 4
  br label %.sink.split

30:                                               ; preds = %3
  %31 = getelementptr inbounds nuw i8, ptr %0, i64 32
  %32 = load i32, ptr %31, align 8
  br label %.sink.split

33:                                               ; preds = %3
  %34 = getelementptr inbounds nuw i8, ptr %0, i64 36
  %35 = load i32, ptr %34, align 4
  br label %.sink.split

36:                                               ; preds = %3
  %37 = getelementptr inbounds nuw i8, ptr %0, i64 40
  %38 = load i32, ptr %37, align 8
  %.not = icmp eq i32 %38, 0
  %39 = zext i1 %.not to i32
  br label %.sink.split

40:                                               ; preds = %3
  %41 = getelementptr inbounds nuw i8, ptr %0, i64 48
  %42 = load i32, ptr %41, align 8
  br label %.sink.split

43:                                               ; preds = %3
  %44 = getelementptr inbounds nuw i8, ptr %0, i64 68
  %45 = load i32, ptr %44, align 4
  br label %.sink.split

46:                                               ; preds = %3
  %47 = getelementptr inbounds nuw i8, ptr %0, i64 72
  %48 = load i32, ptr %47, align 8
  br label %.sink.split

49:                                               ; preds = %3
  %50 = getelementptr inbounds nuw i8, ptr %0, i64 76
  %51 = load i32, ptr %50, align 4
  br label %.sink.split

52:                                               ; preds = %3
  %53 = getelementptr inbounds nuw i8, ptr %0, i64 120
  %54 = load i32, ptr %53, align 8
  br label %.sink.split

55:                                               ; preds = %3
  %56 = getelementptr inbounds nuw i8, ptr %0, i64 96
  %57 = load i32, ptr %56, align 8
  br label %.sink.split

58:                                               ; preds = %3
  %59 = getelementptr inbounds nuw i8, ptr %0, i64 100
  %60 = load i32, ptr %59, align 4
  br label %.sink.split

61:                                               ; preds = %3
  %62 = getelementptr inbounds nuw i8, ptr %0, i64 108
  %63 = load i32, ptr %62, align 4
  br label %.sink.split

64:                                               ; preds = %3
  %65 = getelementptr inbounds nuw i8, ptr %0, i64 104
  %66 = load i32, ptr %65, align 8
  br label %.sink.split

67:                                               ; preds = %3
  %68 = getelementptr inbounds nuw i8, ptr %0, i64 112
  %69 = load i32, ptr %68, align 8
  br label %.sink.split

70:                                               ; preds = %3
  %71 = getelementptr inbounds nuw i8, ptr %0, i64 56
  %72 = load i64, ptr %71, align 8
  %73 = trunc i64 %72 to i32
  br label %.sink.split

74:                                               ; preds = %3
  %75 = getelementptr inbounds nuw i8, ptr %0, i64 64
  %76 = load i32, ptr %75, align 8
  br label %.sink.split

77:                                               ; preds = %3
  %78 = getelementptr inbounds nuw i8, ptr %0, i64 124
  %79 = load i32, ptr %78, align 4
  br label %.sink.split

80:                                               ; preds = %3
  %81 = getelementptr inbounds nuw i8, ptr %0, i64 128
  %82 = load i32, ptr %81, align 8
  br label %.sink.split

83:                                               ; preds = %3
  %84 = getelementptr inbounds nuw i8, ptr %0, i64 132
  %85 = load i32, ptr %84, align 4
  br label %.sink.split

86:                                               ; preds = %3
  %87 = getelementptr inbounds nuw i8, ptr %0, i64 136
  %88 = load i32, ptr %87, align 8
  br label %.sink.split

89:                                               ; preds = %3
  %90 = getelementptr inbounds nuw i8, ptr %0, i64 140
  %91 = load i32, ptr %90, align 4
  br label %.sink.split

92:                                               ; preds = %3
  %93 = getelementptr inbounds nuw i8, ptr %0, i64 144
  %94 = load i32, ptr %93, align 8
  br label %.sink.split

95:                                               ; preds = %3
  %96 = getelementptr inbounds nuw i8, ptr %0, i64 148
  %97 = load i32, ptr %96, align 4
  br label %.sink.split

98:                                               ; preds = %3
  %99 = getelementptr inbounds nuw i8, ptr %0, i64 176
  %100 = load i32, ptr %99, align 8
  br label %.sink.split

101:                                              ; preds = %3
  %102 = getelementptr inbounds nuw i8, ptr %0, i64 180
  %103 = load i32, ptr %102, align 4
  br label %.sink.split

104:                                              ; preds = %3
  %105 = getelementptr inbounds nuw i8, ptr %0, i64 192
  %106 = load i64, ptr %105, align 8
  %107 = trunc i64 %106 to i32
  br label %.sink.split

108:                                              ; preds = %3
  %109 = getelementptr inbounds nuw i8, ptr %0, i64 200
  %110 = load i32, ptr %109, align 8
  br label %.sink.split

.sink.split:                                      ; preds = %108, %104, %101, %98, %95, %92, %89, %86, %83, %80, %77, %74, %70, %67, %64, %61, %58, %55, %52, %49, %46, %43, %40, %36, %33, %30, %27, %24, %21, %18, %15, %12, %9, %6, %4
  %.sink = phi i32 [ %5, %4 ], [ %8, %6 ], [ %11, %9 ], [ %14, %12 ], [ %17, %15 ], [ %20, %18 ], [ %23, %21 ], [ %26, %24 ], [ %29, %27 ], [ %32, %30 ], [ %35, %33 ], [ %39, %36 ], [ %42, %40 ], [ %45, %43 ], [ %48, %46 ], [ %51, %49 ], [ %54, %52 ], [ %57, %55 ], [ %60, %58 ], [ %63, %61 ], [ %66, %64 ], [ %69, %67 ], [ %73, %70 ], [ %76, %74 ], [ %79, %77 ], [ %82, %80 ], [ %85, %83 ], [ %88, %86 ], [ %91, %89 ], [ %94, %92 ], [ %97, %95 ], [ %100, %98 ], [ %103, %101 ], [ %107, %104 ], [ %110, %108 ]
  store i32 %.sink, ptr %2, align 4
  br label %111

111:                                              ; preds = %.sink.split, %3
  %.0 = phi i64 [ -40, %3 ], [ 0, %.sink.split ]
  ret i64 %.0
}